; Function Attrs: inlinehint mustprogress uwtable
define internal fastcc void @_ZN6icu_77L13_appendSymbolERNS_13UnicodeStringEiPKS0_i(ptr noundef nonnull align 8 dereferenceable(64) %0, i32 noundef %1, ptr noundef %2, i32 noundef %3) unnamed_addr #2 {
  %5 = icmp sgt i32 %1, -1
  %6 = icmp slt i32 %1, %3
  %or.cond = and i1 %5, %6
  br i1 %or.cond, label %7, label %19

7:                                                ; preds = %4
  %8 = zext nneg i32 %1 to i64
  %9 = getelementptr inbounds nuw %"class.icu_77::UnicodeString", ptr %2, i64 %8
  %10 = getelementptr inbounds nuw i8, ptr %9, i64 8
  %11 = load i16, ptr %10, align 8, !tbaa !51
  %12 = icmp slt i16 %11, 0
  %13 = ashr i16 %11, 5
  %14 = sext i16 %13 to i32
  %15 = getelementptr inbounds nuw i8, ptr %9, i64 12
  %16 = load i32, ptr %15, align 4
  %17 = select i1 %12, i32 %16, i32 %14
  %18 = tail call noundef nonnull align 8 dereferenceable(64) ptr @_ZN6icu_7713UnicodeString8doAppendERKS0_ii(ptr noundef nonnull align 8 dereferenceable(64) %0, ptr noundef nonnull align 8 dereferenceable(64) %9, i32 noundef 0, i32 noundef %17)
  br label %19

19:                                               ; preds = %7, %4
  ret void
}